; Function Attrs: nounwind uwtable
define noundef zeroext i1 @duckdb_je_tcache_bins_ncached_max_write(ptr noundef %0, ptr noundef %1, i64 noundef %2) local_unnamed_addr #0 {
  %4 = alloca [73 x %struct.cache_bin_info_s], align 16
  call void @llvm.lifetime.start.p0(i64 146, ptr nonnull %4) #16
  %5 = getelementptr i8, ptr %0, i64 894
  br label %6

6:                                                ; preds = %6, %3
  %indvars.iv.i = phi i64 [ 0, %3 ], [ %indvars.iv.next.i, %6 ]
  %7 = getelementptr inbounds nuw %struct.cache_bin_info_s, ptr %4, i64 %indvars.iv.i
  %.idx.i = mul nuw nsw i64 %indvars.iv.i, 24
  %8 = getelementptr i8, ptr %5, i64 %.idx.i
  %.val.i = load i16, ptr %8, align 2, !tbaa !40
  call void @duckdb_je_cache_bin_info_init(ptr noundef nonnull %7, i16 noundef zeroext %.val.i) #16
  %indvars.iv.next.i = add nuw nsw i64 %indvars.iv.i, 1
  %exitcond.not.i = icmp eq i64 %indvars.iv.next.i, 73
  br i1 %exitcond.not.i, label %tcache_bin_settings_backup.exit, label %6

tcache_bin_settings_backup.exit:                  ; preds = %6
  %9 = getelementptr inbounds nuw i8, ptr %0, i64 864
  %10 = call fastcc zeroext i1 @tcache_bin_info_settings_parse(ptr noundef %1, i64 noundef %2, ptr noundef nonnull %4, ptr noundef null)
  br i1 %10, label %19, label %11

11:                                               ; preds = %tcache_bin_settings_backup.exit
  %12 = load ptr, ptr %9, align 8, !tbaa !42
  %13 = getelementptr inbounds nuw i8, ptr %12, i64 40
  %14 = load ptr, ptr %13, align 8, !tbaa !45
  %15 = load i8, ptr %0, align 1, !tbaa !17, !range !19, !noundef !20
  %16 = trunc nuw i8 %15 to i1
  br i1 %16, label %17, label %duckdb_je_tcache_cleanup.exit

17:                                               ; preds = %11
  call fastcc void @tcache_destroy(ptr noundef nonnull %0, ptr noundef nonnull %9, i1 noundef zeroext true)
  %18 = getelementptr inbounds nuw i8, ptr %0, i64 872
  call void @llvm.memset.p0.i64(ptr noundef nonnull align 8 dereferenceable(1752) %18, i8 0, i64 1752, i1 false)
  br label %duckdb_je_tcache_cleanup.exit

duckdb_je_tcache_cleanup.exit:                    ; preds = %11, %17
  call fastcc void @duckdb_je_tsd_tcache_data_init(ptr noundef nonnull %0, ptr noundef %14, ptr noundef nonnull %4)
  br label %19

19:                                               ; preds = %tcache_bin_settings_backup.exit, %duckdb_je_tcache_cleanup.exit
  call void @llvm.lifetime.end.p0(i64 146, ptr nonnull %4) #16
  ret i1 %10
}